ccopy_reg
_reconstructor
p0
(cedsudoku.board
Board
p1
c__builtin__
object
p2
Ntp3
Rp4
(dp5
S'_solution'
p6
g0
(cedsudoku.board
SimpleBoard
p7
g2
Ntp8
Rp9
(dp10
S'_data'
p11
S'375614829942538671816927354294173568157862943683495217469281735538746192721359486'
p12
sS'_block_height'
p13
I3
sS'_block_width'
p14
I3
sbsS'_problem'
p15
g0
(g7
g2
Ntp16
Rp17
(dp18
g11
S'       2 9 2 3  7181    3 4   1  56   7     3 8 4 5       8 7     7   9  2   9   '
p19
sg13
I3
sg14
I3
sbsg13
I3
sg14
I3
sb.