ccopy_reg
_reconstructor
p0
(cedsudoku.board
Board
p1
c__builtin__
object
p2
Ntp3
Rp4
(dp5
S'_solution'
p6
g0
(cedsudoku.board
SimpleBoard
p7
g2
Ntp8
Rp9
(dp10
S'_data'
p11
S'582679314973451286416328759829135467345786192761942538197564823638217945254893671'
p12
sS'_block_height'
p13
I3
sS'_block_width'
p14
I3
sbsS'_problem'
p15
g0
(g7
g2
Ntp16
Rp17
(dp18
g11
S'58     1  7 4  2 6   3    9       6 3  7      61   538    6       21 9  2 4 9    '
p19
sg13
I3
sg14
I3
sbsg13
I3
sg14
I3
sb.