ccopy_reg
_reconstructor
p0
(cedsudoku.board
Board
p1
c__builtin__
object
p2
Ntp3
Rp4
(dp5
S'_solution'
p6
g0
(cedsudoku.board
SimpleBoard
p7
g2
Ntp8
Rp9
(dp10
S'_data'
p11
S'495126783768435921231879546689243175352761498147958362574382619816594237923617854'
p12
sS'_block_height'
p13
I3
sS'_block_width'
p14
I3
sbsS'_problem'
p15
g0
(g7
g2
Ntp16
Rp17
(dp18
g11
S'  5  6   7 8 3          5     2    5   7  49 14   8 6        19  65 42 7 23      '
p19
sg13
I3
sg14
I3
sbsg13
I3
sg14
I3
sb.