ccopy_reg
_reconstructor
p0
(cedsudoku.board
Board
p1
c__builtin__
object
p2
Ntp3
Rp4
(dp5
S'_solution'
p6
g0
(cedsudoku.board
SimpleBoard
p7
g2
Ntp8
Rp9
(dp10
S'_data'
p11
S'924671835876539412135482976659123748713845269248967351462758193397216584581394627'
p12
sS'_block_height'
p13
I3
sS'_block_width'
p14
I3
sbsS'_problem'
p15
g0
(g7
g2
Ntp16
Rp17
(dp18
g11
S'9         7 5  4      82  6 5   3  8    4       96    4    819 3  2   8 5  39  2 '
p19
sg13
I3
sg14
I3
sbsg13
I3
sg14
I3
sb.