ccopy_reg
_reconstructor
p0
(cedsudoku.board
Board
p1
c__builtin__
object
p2
Ntp3
Rp4
(dp5
S'_solution'
p6
g0
(cedsudoku.board
SimpleBoard
p7
g2
Ntp8
Rp9
(dp10
S'_data'
p11
S'283459761914367528567812943452938617791246385836571492628795134145683279379124856'
p12
sS'_block_height'
p13
I3
sS'_block_width'
p14
I3
sbsS'_problem'
p15
g0
(g7
g2
Ntp16
Rp17
(dp18
g11
S'    5     1 36 5    7    43  2 386 7   2   8   6 7    6 8        5   2  3  1 4   '
p19
sg13
I3
sg14
I3
sbsg13
I3
sg14
I3
sb.