ccopy_reg
_reconstructor
p0
(cedsudoku.board
Board
p1
c__builtin__
object
p2
Ntp3
Rp4
(dp5
S'_solution'
p6
g0
(cedsudoku.board
SimpleBoard
p7
g2
Ntp8
Rp9
(dp10
S'_data'
p11
S'476159832253784916918623754347268591892315467165947328724531689581496273639872145'
p12
sS'_block_height'
p13
I3
sS'_block_width'
p14
I3
sbsS'_problem'
p15
g0
(g7
g2
Ntp16
Rp17
(dp18
g11
S'4   5  3  5  8      8 2     4     9    3   671  9 73  7       9 8   6     9  2  5'
p19
sg13
I3
sg14
I3
sbsg13
I3
sg14
I3
sb.