ccopy_reg
_reconstructor
p0
(cedsudoku.board
Board
p1
c__builtin__
object
p2
Ntp3
Rp4
(dp5
S'_solution'
p6
g0
(cedsudoku.board
SimpleBoard
p7
g2
Ntp8
Rp9
(dp10
S'_data'
p11
S'986273415341695728275481963439517286157826349862934157798162534624359871513748692'
p12
sS'_block_height'
p13
I3
sS'_block_width'
p14
I3
sbsS'_problem'
p15
g0
(g7
g2
Ntp16
Rp17
(dp18
g11
S'9     41 3   95  82   8 9     517 8   78      6  3         253   4  9    1    6  '
p19
sg13
I3
sg14
I3
sbsg13
I3
sg14
I3
sb.