ccopy_reg
_reconstructor
p0
(cedsudoku.board
Board
p1
c__builtin__
object
p2
Ntp3
Rp4
(dp5
S'_solution'
p6
g0
(cedsudoku.board
SimpleBoard
p7
g2
Ntp8
Rp9
(dp10
S'_data'
p11
S'236489571975132468841657923314968257769325814528741396193274685457896132682513749'
p12
sS'_block_height'
p13
I3
sS'_block_width'
p14
I3
sbsS'_problem'
p15
g0
(g7
g2
Ntp16
Rp17
(dp18
g11
S'2 6    71    3       6 79   1      77 9  58 4    4   6     4    5  9 1 2 8  13   '
p19
sg13
I3
sg14
I3
sbsg13
I3
sg14
I3
sb.