ccopy_reg
_reconstructor
p0
(cedsudoku.board
Board
p1
c__builtin__
object
p2
Ntp3
Rp4
(dp5
S'_solution'
p6
g0
(cedsudoku.board
SimpleBoard
p7
g2
Ntp8
Rp9
(dp10
S'_data'
p11
S'135287964698435721274691385912348576863572419547169832429713658756824193381956247'
p12
sS'_block_height'
p13
I3
sS'_block_width'
p14
I3
sbsS'_problem'
p15
g0
(g7
g2
Ntp16
Rp17
(dp18
g11
S'1    79     4   2       3 5  2    7686        4 1 9    2      8 5 82 1 3  1 5    '
p19
sg13
I3
sg14
I3
sbsg13
I3
sg14
I3
sb.