ccopy_reg
_reconstructor
p0
(cedsudoku.board
Board
p1
c__builtin__
object
p2
Ntp3
Rp4
(dp5
S'_solution'
p6
g0
(cedsudoku.board
SimpleBoard
p7
g2
Ntp8
Rp9
(dp10
S'_data'
p11
S'169543278342876519758129436695387124417652983283914657926731845574298361831465792'
p12
sS'_block_height'
p13
I3
sS'_block_width'
p14
I3
sbsS'_problem'
p15
g0
(g7
g2
Ntp16
Rp17
(dp18
g11
S'       7       5  7 8   4 669 3 7 2  1     8 2 39       6 3    57   8      4  792'
p19
sg13
I3
sg14
I3
sbsg13
I3
sg14
I3
sb.