ccopy_reg
_reconstructor
p0
(cedsudoku.board
Board
p1
c__builtin__
object
p2
Ntp3
Rp4
(dp5
S'_solution'
p6
g0
(cedsudoku.board
SimpleBoard
p7
g2
Ntp8
Rp9
(dp10
S'_data'
p11
S'431985276872346195596217483915672348628453719347891652183564927769128534254739861'
p12
sS'_block_height'
p13
I3
sS'_block_width'
p14
I3
sbsS'_problem'
p15
g0
(g7
g2
Ntp16
Rp17
(dp18
g11
S'  19    6    4   5   2 7  3   6 2     8 5 7  347      18      7  9  8   2      61'
p19
sg13
I3
sg14
I3
sbsg13
I3
sg14
I3
sb.