ccopy_reg
_reconstructor
p0
(cedsudoku.board
Board
p1
c__builtin__
object
p2
Ntp3
Rp4
(dp5
S'_solution'
p6
g0
(cedsudoku.board
SimpleBoard
p7
g2
Ntp8
Rp9
(dp10
S'_data'
p11
S'564981372398275164271634598659328741482719635137546829716452983925863417843197256'
p12
sS'_block_height'
p13
I3
sS'_block_width'
p14
I3
sbsS'_problem'
p15
g0
(g7
g2
Ntp16
Rp17
(dp18
g11
S'  49  3    8  5   27        5  2       7     1     8    64  9 3   8 34  8   9 2 6'
p19
sg13
I3
sg14
I3
sbsg13
I3
sg14
I3
sb.