ccopy_reg
_reconstructor
p0
(cedsudoku.board
Board
p1
c__builtin__
object
p2
Ntp3
Rp4
(dp5
S'_solution'
p6
g0
(cedsudoku.board
SimpleBoard
p7
g2
Ntp8
Rp9
(dp10
S'_data'
p11
S'165743298483259671792861345379584162846172953251396784627418539518937426934625817'
p12
sS'_block_height'
p13
I3
sS'_block_width'
p14
I3
sbsS'_problem'
p15
g0
(g7
g2
Ntp16
Rp17
(dp18
g11
S'      29 4   596         4     8     4 1  9 32      8   7 185  5 89   2  3 6   1 '
p19
sg13
I3
sg14
I3
sbsg13
I3
sg14
I3
sb.