ccopy_reg
_reconstructor
p0
(cedsudoku.board
Board
p1
c__builtin__
object
p2
Ntp3
Rp4
(dp5
S'_solution'
p6
g0
(cedsudoku.board
SimpleBoard
p7
g2
Ntp8
Rp9
(dp10
S'_data'
p11
S'836491257154273698927658134269837415583142769471569823348916572715324986692785341'
p12
sS'_block_height'
p13
I3
sS'_block_width'
p14
I3
sbsS'_problem'
p15
g0
(g7
g2
Ntp16
Rp17
(dp18
g11
S'  64 1    5         7   13     37    8      9  1 6  2       5  7 5  49 6 9  8  4 '
p19
sg13
I3
sg14
I3
sbsg13
I3
sg14
I3
sb.