ccopy_reg
_reconstructor
p0
(cedsudoku.board
Board
p1
c__builtin__
object
p2
Ntp3
Rp4
(dp5
S'_solution'
p6
g0
(cedsudoku.board
SimpleBoard
p7
g2
Ntp8
Rp9
(dp10
S'_data'
p11
S'521798346389462175467153928256347819974815263138926457843571692695234781712689534'
p12
sS'_block_height'
p13
I3
sS'_block_width'
p14
I3
sbsS'_problem'
p15
g0
(g7
g2
Ntp16
Rp17
(dp18
g11
S'52     4 3 946       1   2     4 8   7 81  6     2   7        269       7    9534'
p19
sg13
I3
sg14
I3
sbsg13
I3
sg14
I3
sb.