ccopy_reg
_reconstructor
p0
(cedsudoku.board
Board
p1
c__builtin__
object
p2
Ntp3
Rp4
(dp5
S'_solution'
p6
g0
(cedsudoku.board
SimpleBoard
p7
g2
Ntp8
Rp9
(dp10
S'_data'
p11
S'461927385893546217275381694937268451528134769614795823152873946386459172749612538'
p12
sS'_block_height'
p13
I3
sS'_block_width'
p14
I3
sbsS'_problem'
p15
g0
(g7
g2
Ntp16
Rp17
(dp18
g11
S'   92   58 3         3 1       6   1528  4  9 1   5          46  64 9 7 7   1  3 '
p19
sg13
I3
sg14
I3
sbsg13
I3
sg14
I3
sb.