ccopy_reg
_reconstructor
p0
(cedsudoku.board
Board
p1
c__builtin__
object
p2
Ntp3
Rp4
(dp5
S'_solution'
p6
g0
(cedsudoku.board
SimpleBoard
p7
g2
Ntp8
Rp9
(dp10
S'_data'
p11
S'385746912917352846462189735658231479743965128291874563824697351536418297179523684'
p12
sS'_block_height'
p13
I3
sS'_block_width'
p14
I3
sbsS'_problem'
p15
g0
(g7
g2
Ntp16
Rp17
(dp18
g11
S'3 5     2   35 8       97  6 8  1 7   3    2   18  5   2 69              7  2   4'
p19
sg13
I3
sg14
I3
sbsg13
I3
sg14
I3
sb.