ccopy_reg
_reconstructor
p0
(cedsudoku.board
Board
p1
c__builtin__
object
p2
Ntp3
Rp4
(dp5
S'_solution'
p6
g0
(cedsudoku.board
SimpleBoard
p7
g2
Ntp8
Rp9
(dp10
S'_data'
p11
S'286319745739452681145687392457928163821563974693741258572836419914275836368194527'
p12
sS'_block_height'
p13
I3
sS'_block_width'
p14
I3
sbsS'_problem'
p15
g0
(g7
g2
Ntp16
Rp17
(dp18
g11
S'      7   3  5    1   8   245 9    3 2     7     41       3 41 91   58    8  4 2 '
p19
sg13
I3
sg14
I3
sbsg13
I3
sg14
I3
sb.