ccopy_reg
_reconstructor
p0
(cedsudoku.board
Board
p1
c__builtin__
object
p2
Ntp3
Rp4
(dp5
S'_solution'
p6
g0
(cedsudoku.board
SimpleBoard
p7
g2
Ntp8
Rp9
(dp10
S'_data'
p11
S'752184936193526847846379152379615284684932571521847369238761495465298713917453628'
p12
sS'_block_height'
p13
I3
sS'_block_width'
p14
I3
sbsS'_problem'
p15
g0
(g7
g2
Ntp16
Rp17
(dp18
g11
S'    8 9 61  52  4    3  1   7  1     8    5   2     692        4       3    536 8'
p19
sg13
I3
sg14
I3
sbsg13
I3
sg14
I3
sb.